; ModuleID = '41/506.c'
source_filename = "41/506.c"
target datalayout = "e-m:e-p270:32:32-p271:32:32-p272:64:64-i64:64-f80:128-n8:16:32:64-S128"
target triple = "x86_64-pc-linux-gnu"

@.str = private unnamed_addr constant [15 x i8] c"%d %d %d %d %d\00", align 1

; Function Attrs: noinline nounwind uwtable
define dso_local i32 @main() #0 {
  %1 = alloca i32, align 4
  %2 = alloca i32, align 4
  %3 = alloca i32, align 4
  %4 = alloca i32, align 4
  %5 = alloca i32, align 4
  %6 = alloca i32, align 4
  %7 = alloca i32, align 4
  store i32 0, i32* %1, align 4
  store i32 1, i32* %7, align 4
  store i32 1, i32* %2, align 4
  br label %8

8:                                                ; preds = %113, %0
  %9 = load i32, i32* %2, align 4
  %10 = icmp sle i32 %9, 5
  br i1 %10, label %11, label %116

11:                                               ; preds = %8
  %12 = load i32, i32* %2, align 4
  %13 = icmp eq i32 %12, 1
  br i1 %13, label %17, label %14

14:                                               ; preds = %11
  %15 = load i32, i32* %2, align 4
  %16 = icmp eq i32 %15, 2
  br i1 %16, label %17, label %18

17:                                               ; preds = %14, %11
  store i32 1, i32* %6, align 4
  store i32 1, i32* %5, align 4
  br label %113

18:                                               ; preds = %14
  store i32 4, i32* %6, align 4
  br label %19

19:                                               ; preds = %108, %18
  %20 = load i32, i32* %6, align 4
  %21 = icmp sle i32 %20, 5
  br i1 %21, label %22, label %111

22:                                               ; preds = %19
  store i32 2, i32* %5, align 4
  br label %23

23:                                               ; preds = %104, %22
  %24 = load i32, i32* %5, align 4
  %25 = icmp sle i32 %24, 5
  br i1 %25, label %26, label %107

26:                                               ; preds = %23
  %27 = load i32, i32* %5, align 4
  %28 = icmp eq i32 %27, 2
  br i1 %28, label %29, label %42

29:                                               ; preds = %26
  store i32 3, i32* %4, align 4
  br label %30

30:                                               ; preds = %38, %29
  %31 = load i32, i32* %4, align 4
  %32 = icmp sle i32 %31, 5
  br i1 %32, label %33, label %41

33:                                               ; preds = %30
  %34 = load i32, i32* %2, align 4
  %35 = icmp eq i32 %34, 5
  br i1 %35, label %36, label %37

36:                                               ; preds = %33
  br label %38

37:                                               ; preds = %33
  br label %38

38:                                               ; preds = %37, %36
  %39 = load i32, i32* %4, align 4
  %40 = add nsw i32 %39, 1
  store i32 %40, i32* %4, align 4
  br label %30

41:                                               ; preds = %30
  br label %103

42:                                               ; preds = %26
  store i32 1, i32* %4, align 4
  %43 = load i32, i32* %2, align 4
  %44 = icmp eq i32 %43, 5
  br i1 %44, label %45, label %101

45:                                               ; preds = %42
  store i32 1, i32* %3, align 4
  br label %46

46:                                               ; preds = %97, %45
  %47 = load i32, i32* %3, align 4
  %48 = icmp sle i32 %47, 5
  br i1 %48, label %49, label %100

49:                                               ; preds = %46
  %50 = load i32, i32* %2, align 4
  %51 = load i32, i32* %3, align 4
  %52 = icmp ne i32 %50, %51
  br i1 %52, label %53, label %96

53:                                               ; preds = %49
  %54 = load i32, i32* %4, align 4
  %55 = load i32, i32* %3, align 4
  %56 = icmp ne i32 %54, %55
  br i1 %56, label %57, label %96

57:                                               ; preds = %53
  %58 = load i32, i32* %5, align 4
  %59 = load i32, i32* %3, align 4
  %60 = icmp ne i32 %58, %59
  br i1 %60, label %61, label %96

61:                                               ; preds = %57
  %62 = load i32, i32* %6, align 4
  %63 = load i32, i32* %3, align 4
  %64 = icmp ne i32 %62, %63
  br i1 %64, label %65, label %96

65:                                               ; preds = %61
  %66 = load i32, i32* %2, align 4
  %67 = load i32, i32* %4, align 4
  %68 = icmp ne i32 %66, %67
  br i1 %68, label %69, label %96

69:                                               ; preds = %65
  %70 = load i32, i32* %2, align 4
  %71 = load i32, i32* %5, align 4
  %72 = icmp ne i32 %70, %71
  br i1 %72, label %73, label %96

73:                                               ; preds = %69
  %74 = load i32, i32* %2, align 4
  %75 = load i32, i32* %6, align 4
  %76 = icmp ne i32 %74, %75
  br i1 %76, label %77, label %96

77:                                               ; preds = %73
  %78 = load i32, i32* %4, align 4
  %79 = load i32, i32* %5, align 4
  %80 = icmp ne i32 %78, %79
  br i1 %80, label %81, label %96

81:                                               ; preds = %77
  %82 = load i32, i32* %4, align 4
  %83 = load i32, i32* %6, align 4
  %84 = icmp ne i32 %82, %83
  br i1 %84, label %85, label %96

85:                                               ; preds = %81
  %86 = load i32, i32* %5, align 4
  %87 = load i32, i32* %6, align 4
  %88 = icmp ne i32 %86, %87
  br i1 %88, label %89, label %96

89:                                               ; preds = %85
  %90 = load i32, i32* %2, align 4
  %91 = load i32, i32* %3, align 4
  %92 = load i32, i32* %4, align 4
  %93 = load i32, i32* %5, align 4
  %94 = load i32, i32* %6, align 4
  %95 = call i32 (i8*, ...) @printf(i8* getelementptr inbounds ([15 x i8], [15 x i8]* @.str, i64 0, i64 0), i32 %90, i32 %91, i32 %92, i32 %93, i32 %94)
  br label %96

96:                                               ; preds = %89, %85, %81, %77, %73, %69, %65, %61, %57, %53, %49
  br label %97

97:                                               ; preds = %96
  %98 = load i32, i32* %3, align 4
  %99 = add nsw i32 %98, 1
  store i32 %99, i32* %3, align 4
  br label %46

100:                                              ; preds = %46
  br label %102

101:                                              ; preds = %42
  br label %104

102:                                              ; preds = %100
  br label %103

103:                                              ; preds = %102, %41
  br label %104

104:                                              ; preds = %103, %101
  %105 = load i32, i32* %5, align 4
  %106 = add nsw i32 %105, 1
  store i32 %106, i32* %5, align 4
  br label %23

107:                                              ; preds = %23
  br label %108

108:                                              ; preds = %107
  %109 = load i32, i32* %6, align 4
  %110 = add nsw i32 %109, 1
  store i32 %110, i32* %6, align 4
  br label %19

111:                                              ; preds = %19
  br label %112

112:                                              ; preds = %111
  br label %113

113:                                              ; preds = %112, %17
  %114 = load i32, i32* %2, align 4
  %115 = add nsw i32 %114, 1
  store i32 %115, i32* %2, align 4
  br label %8

116:                                              ; preds = %8
  %117 = load i32, i32* %1, align 4
  ret i32 %117
}

declare dso_local i32 @printf(i8*, ...) #1


!llvm.module.flags = !{!0}
!llvm.ident = !{!1}

!0 = !{i32 1, !"wchar_size", i32 4}
!1 = !{!"clang version 10.0.0-4ubuntu1 "}
